target datalayout = "e-m:e-p270:32:32-p271:32:32-p272:64:64-i64:64-i128:128-f80:128-n8:16:32:64-S128"
target triple = "x86_64-pc-linux-gnu"

%"class.fmt::v11::basic_string_view" = type { ptr, i64 }
%"class.fmt::v11::buffered_file" = type { ptr }
%"class.fmt::v11::basic_cstring_view" = type { ptr }
%"struct.fmt::v11::fstring" = type { %"class.fmt::v11::basic_string_view" }
%struct.FMT_COMPILE_STRING = type { i8 }
%class.anon = type { i8 }
%"class.std::system_error" = type { %"class.std::runtime_error", %"class.std::error_code" }
%"class.std::runtime_error" = type { %"class.std::exception", %"struct.std::__cow_string" }
%"class.std::exception" = type { ptr }
%"struct.std::__cow_string" = type { %union.anon }
%union.anon = type { ptr }
%"class.std::error_code" = type { i32, ptr }

@_ZTISt12system_error = external constant ptr
@.str.46 = private unnamed_addr constant [20 x i8] c"cannot open file {}\00", align 1
@__const.fstring.sv.58 = private unnamed_addr constant %"class.fmt::v11::basic_string_view" { ptr @.str.46, i64 19 }, align 8

; Function Attrs: mustprogress nounwind uwtable
define linkonce_odr hidden void @_ZN3fmt3v1117basic_string_viewIcEC2EPKcm(ptr noundef nonnull align 8 dereferenceable(16) %0, ptr noundef %1, i64 noundef %2) unnamed_addr #0 comdat align 2 {
  %4 = alloca ptr, align 8
  %5 = alloca ptr, align 8
  %6 = alloca i64, align 8
  store ptr %0, ptr %4, align 8, !tbaa !127
  store ptr %1, ptr %5, align 8, !tbaa !14
  store i64 %2, ptr %6, align 8, !tbaa !25
  %7 = load ptr, ptr %4, align 8
  %8 = getelementptr inbounds nuw %"class.fmt::v11::basic_string_view", ptr %7, i32 0, i32 0
  %9 = load ptr, ptr %5, align 8, !tbaa !14
  store ptr %9, ptr %8, align 8, !tbaa !129
  %10 = getelementptr inbounds nuw %"class.fmt::v11::basic_string_view", ptr %7, i32 0, i32 1
  %11 = load i64, ptr %6, align 8, !tbaa !25
  store i64 %11, ptr %10, align 8, !tbaa !131
  ret void
}

; Function Attrs: mustprogress nounwind uwtable
define linkonce_odr hidden noundef i32 @_ZNSt11char_traitsIcE11to_int_typeERKc(ptr noundef nonnull align 1 dereferenceable(1) %0) #0 comdat align 2 {
  %2 = alloca ptr, align 8
  store ptr %0, ptr %2, align 8, !tbaa !14
  %3 = load ptr, ptr %2, align 8, !tbaa !14
  %4 = load i8, ptr %3, align 1, !tbaa !132
  %5 = zext i8 %4 to i32
  ret i32 %5
}

; Function Attrs: mustprogress nounwind uwtable
define linkonce_odr hidden { ptr, i64 } @_ZN3fmt3v116detail22compile_string_to_viewIcLm20EEENS0_17basic_string_viewIT_EERAT0__KS4_(ptr noundef nonnull align 1 dereferenceable(20) %0) #0 comdat {
  %2 = alloca %"class.fmt::v11::basic_string_view", align 8
  %3 = alloca ptr, align 8
  store ptr %0, ptr %3, align 8, !tbaa !14
  %4 = load ptr, ptr %3, align 8, !tbaa !14
  %5 = getelementptr inbounds [20 x i8], ptr %4, i64 0, i64 0
  %6 = load ptr, ptr %3, align 8, !tbaa !14
  %7 = getelementptr inbounds nuw [20 x i8], ptr %6, i64 0, i64 19
  %8 = call noundef i32 @_ZNSt11char_traitsIcE11to_int_typeERKc(ptr noundef nonnull align 1 dereferenceable(1) %7) #27
  %9 = icmp eq i32 %8, 0
  %10 = select i1 %9, i32 1, i32 0
  %11 = sext i32 %10 to i64
  %12 = sub i64 20, %11
  call void @_ZN3fmt3v1117basic_string_viewIcEC2EPKcm(ptr noundef nonnull align 8 dereferenceable(16) %2, ptr noundef %5, i64 noundef %12) #27
  %13 = load { ptr, i64 }, ptr %2, align 8
  ret { ptr, i64 } %13
}

; Function Attrs: mustprogress nounwind uwtable
define linkonce_odr hidden void @_ZN3fmt3v116detail13ignore_unusedIJiEEEvDpRKT_(ptr noundef nonnull align 4 dereferenceable(4) %0) #0 comdat {
  %2 = alloca ptr, align 8
  store ptr %0, ptr %2, align 8, !tbaa !60
  ret void
}

; Function Attrs: mustprogress nounwind uwtable
define linkonce_odr hidden void @_ZN3fmt3v116detail13ignore_unusedIJNS0_17basic_string_viewIcEEEEEvDpRKT_(ptr noundef nonnull align 8 dereferenceable(16) %0) #0 comdat {
  %2 = alloca ptr, align 8
  store ptr %0, ptr %2, align 8, !tbaa !127
  ret void
}

; Function Attrs: mustprogress uwtable
define internal { ptr, i64 } @"_ZZZN3fmt3v1113buffered_fileC1ENS0_18basic_cstring_viewIcEES3_ENK3$_0clEvENK18FMT_COMPILE_STRINGcvNS0_17basic_string_viewIcEEEv"(ptr noundef nonnull align 1 dereferenceable(1) %0) #5 align 2 {
  %2 = alloca %"class.fmt::v11::basic_string_view", align 8
  %3 = alloca ptr, align 8
  store ptr %0, ptr %3, align 8, !tbaa !30
  %4 = call { ptr, i64 } @_ZN3fmt3v116detail22compile_string_to_viewIcLm20EEENS0_17basic_string_viewIT_EERAT0__KS4_(ptr noundef nonnull align 1 dereferenceable(20) @.str.46)
  %5 = getelementptr inbounds nuw { ptr, i64 }, ptr %2, i32 0, i32 0
  %6 = extractvalue { ptr, i64 } %4, 0
  store ptr %6, ptr %5, align 8
  %7 = getelementptr inbounds nuw { ptr, i64 }, ptr %2, i32 0, i32 1
  %8 = extractvalue { ptr, i64 } %4, 1
  store i64 %8, ptr %7, align 8
  %9 = load { ptr, i64 }, ptr %2, align 8
  ret { ptr, i64 } %9
}

; Function Attrs: alwaysinline mustprogress uwtable
define internal void @"_ZN3fmt3v117fstringIJPKcEEC2IZZNS0_13buffered_fileC1ENS0_18basic_cstring_viewIcEES8_ENK3$_0clEvE18FMT_COMPILE_STRINGTnNSt9enable_ifIXaasr3std10is_base_ofINS0_6detail14compile_stringET_EE5valuesr3std7is_sameINSE_9char_typeEcEE5valueEiE4typeELi0EEERKSE_"(ptr noundef nonnull align 8 dereferenceable(16) %0, ptr noundef nonnull align 1 dereferenceable(1) %1) unnamed_addr #8 align 2 {
  %3 = alloca ptr, align 8
  %4 = alloca ptr, align 8
  %5 = alloca %struct.FMT_COMPILE_STRING, align 1
  %6 = alloca %"class.fmt::v11::basic_string_view", align 8
  %7 = alloca i32, align 4
  store ptr %0, ptr %3, align 8, !tbaa !28
  store ptr %1, ptr %4, align 8, !tbaa !30
  %8 = load ptr, ptr %3, align 8
  call void @llvm.lifetime.start.p0(i64 1, ptr %5) #27
  %9 = call { ptr, i64 } @"_ZZZN3fmt3v1113buffered_fileC1ENS0_18basic_cstring_viewIcEES3_ENK3$_0clEvENK18FMT_COMPILE_STRINGcvNS0_17basic_string_viewIcEEEv"(ptr noundef nonnull align 1 dereferenceable(1) %5)
  %10 = getelementptr inbounds nuw { ptr, i64 }, ptr %8, i32 0, i32 0
  %11 = extractvalue { ptr, i64 } %9, 0
  store ptr %11, ptr %10, align 8
  %12 = getelementptr inbounds nuw { ptr, i64 }, ptr %8, i32 0, i32 1
  %13 = extractvalue { ptr, i64 } %9, 1
  store i64 %13, ptr %12, align 8
  call void @llvm.lifetime.end.p0(i64 1, ptr %5) #27
  call void @llvm.lifetime.start.p0(i64 16, ptr %6) #27
  call void @llvm.memcpy.p0.p0.i64(ptr align 8 %6, ptr align 8 @__const.fstring.sv.58, i64 16, i1 false)
  call void @llvm.lifetime.start.p0(i64 4, ptr %7) #27
  store i32 0, ptr %7, align 4, !tbaa !12
  call void @_ZN3fmt3v116detail13ignore_unusedIJiEEEvDpRKT_(ptr noundef nonnull align 4 dereferenceable(4) %7)
  call void @llvm.lifetime.end.p0(i64 4, ptr %7) #27
  call void @llvm.lifetime.end.p0(i64 16, ptr %6) #27
  ret void
}

; Function Attrs: inlinehint mustprogress uwtable
define internal void @"_ZZN3fmt3v1113buffered_fileC1ENS0_18basic_cstring_viewIcEES3_ENK3$_0clEv"(ptr noundef nonnull align 1 dereferenceable(1) %0) #7 align 2 {
  %2 = alloca ptr, align 8
  %3 = alloca %"class.fmt::v11::basic_string_view", align 8
  %4 = alloca %struct.FMT_COMPILE_STRING, align 1
  store ptr %0, ptr %2, align 8, !tbaa !27
  call void @llvm.lifetime.start.p0(i64 16, ptr %3) #27
  call void @llvm.lifetime.start.p0(i64 1, ptr %4) #27
  %5 = call { ptr, i64 } @"_ZZZN3fmt3v1113buffered_fileC1ENS0_18basic_cstring_viewIcEES3_ENK3$_0clEvENK18FMT_COMPILE_STRINGcvNS0_17basic_string_viewIcEEEv"(ptr noundef nonnull align 1 dereferenceable(1) %4)
  %6 = getelementptr inbounds nuw { ptr, i64 }, ptr %3, i32 0, i32 0
  %7 = extractvalue { ptr, i64 } %5, 0
  store ptr %7, ptr %6, align 8
  %8 = getelementptr inbounds nuw { ptr, i64 }, ptr %3, i32 0, i32 1
  %9 = extractvalue { ptr, i64 } %5, 1
  store i64 %9, ptr %8, align 8
  call void @_ZN3fmt3v116detail13ignore_unusedIJNS0_17basic_string_viewIcEEEEEvDpRKT_(ptr noundef nonnull align 8 dereferenceable(16) %3)
  call void @llvm.lifetime.end.p0(i64 1, ptr %4) #27
  call void @llvm.lifetime.end.p0(i64 16, ptr %3) #27
  ret void
}

; Function Attrs: mustprogress nounwind uwtable
define linkonce_odr hidden noundef ptr @_ZNK3fmt3v1118basic_cstring_viewIcE5c_strEv(ptr noundef nonnull align 8 dereferenceable(8) %0) #0 comdat align 2 {
  %2 = alloca ptr, align 8
  store ptr %0, ptr %2, align 8, !tbaa !18
  %3 = load ptr, ptr %2, align 8
  %4 = getelementptr inbounds nuw %"class.fmt::v11::basic_cstring_view", ptr %3, i32 0, i32 0
  %5 = load ptr, ptr %4, align 8, !tbaa !20
  ret ptr %5
}

; Function Attrs: mustprogress uwtable
define hidden void @_ZN3fmt3v1113buffered_fileC2ENS0_18basic_cstring_viewIcEES3_(ptr noundef nonnull align 8 dereferenceable(8) %0, ptr %1, ptr %2) unnamed_addr #5 align 2 personality ptr @__gxx_personality_v0 {
  %4 = alloca %"class.fmt::v11::basic_cstring_view", align 8
  %5 = alloca %"class.fmt::v11::basic_cstring_view", align 8
  %6 = alloca ptr, align 8
  %7 = alloca %"struct.fmt::v11::fstring", align 8
  %8 = alloca %struct.FMT_COMPILE_STRING, align 1
  %9 = alloca %class.anon, align 1
  %10 = alloca ptr, align 8
  %11 = alloca i32, align 4
  %12 = alloca ptr, align 8
  %13 = alloca i1, align 1
  %14 = getelementptr inbounds nuw %"class.fmt::v11::basic_cstring_view", ptr %4, i32 0, i32 0
  store ptr %1, ptr %14, align 8
  %15 = getelementptr inbounds nuw %"class.fmt::v11::basic_cstring_view", ptr %5, i32 0, i32 0
  store ptr %2, ptr %15, align 8
  store ptr %0, ptr %6, align 8, !tbaa !4
  %16 = load ptr, ptr %6, align 8
  br label %17

17:                                               ; preds = %30, %3
  %18 = call noundef ptr @_ZNK3fmt3v1118basic_cstring_viewIcE5c_strEv(ptr noundef nonnull align 8 dereferenceable(8) %4)
  %19 = call noundef ptr @_ZNK3fmt3v1118basic_cstring_viewIcE5c_strEv(ptr noundef nonnull align 8 dereferenceable(8) %5)
  %20 = call noalias ptr @fopen(ptr noundef %18, ptr noundef %19)
  %21 = getelementptr inbounds nuw %"class.fmt::v11::buffered_file", ptr %16, i32 0, i32 0
  store ptr %20, ptr %21, align 8, !tbaa !9
  br label %22

22:                                               ; preds = %17
  %23 = getelementptr inbounds nuw %"class.fmt::v11::buffered_file", ptr %16, i32 0, i32 0
  %24 = load ptr, ptr %23, align 8, !tbaa !9
  %25 = icmp eq ptr %24, null
  br i1 %25, label %26, label %30

26:                                               ; preds = %22
  %27 = call ptr @__errno_location() #26
  %28 = load i32, ptr %27, align 4, !tbaa !12
  %29 = icmp eq i32 %28, 4
  br label %30

30:                                               ; preds = %26, %22
  %31 = phi i1 [ false, %22 ], [ %29, %26 ]
  br i1 %31, label %17, label %32, !llvm.loop !16

32:                                               ; preds = %30
  %33 = getelementptr inbounds nuw %"class.fmt::v11::buffered_file", ptr %16, i32 0, i32 0
  %34 = load ptr, ptr %33, align 8, !tbaa !9
  %35 = icmp ne ptr %34, null
  br i1 %35, label %61, label %36

36:                                               ; preds = %32
  store i1 true, ptr %13, align 1
  %37 = call ptr @__cxa_allocate_exception(i64 32) #27
  %38 = call ptr @__errno_location() #26
  %39 = load i32, ptr %38, align 4, !tbaa !12
  call void @llvm.lifetime.start.p0(i64 1, ptr %8) #27
  call void @llvm.lifetime.start.p0(i64 1, ptr %9) #27
  invoke void @"_ZZN3fmt3v1113buffered_fileC1ENS0_18basic_cstring_viewIcEES3_ENK3$_0clEv"(ptr noundef nonnull align 1 dereferenceable(1) %9)
          to label %40 unwind label %49

40:                                               ; preds = %36
  invoke void @"_ZN3fmt3v117fstringIJPKcEEC2IZZNS0_13buffered_fileC1ENS0_18basic_cstring_viewIcEES8_ENK3$_0clEvE18FMT_COMPILE_STRINGTnNSt9enable_ifIXaasr3std10is_base_ofINS0_6detail14compile_stringET_EE5valuesr3std7is_sameINSE_9char_typeEcEE5valueEiE4typeELi0EEERKSE_"(ptr noundef nonnull align 8 dereferenceable(16) %7, ptr noundef nonnull align 1 dereferenceable(1) %8)
          to label %41 unwind label %49

41:                                               ; preds = %40
  call void @llvm.lifetime.start.p0(i64 8, ptr %12) #27
  %42 = invoke noundef ptr @_ZNK3fmt3v1118basic_cstring_viewIcE5c_strEv(ptr noundef nonnull align 8 dereferenceable(8) %4)
          to label %43 unwind label %53

43:                                               ; preds = %41
  store ptr %42, ptr %12, align 8, !tbaa !14
  %44 = getelementptr inbounds nuw { ptr, i64 }, ptr %7, i32 0, i32 0
  %45 = load ptr, ptr %44, align 8
  %46 = getelementptr inbounds nuw { ptr, i64 }, ptr %7, i32 0, i32 1
  %47 = load i64, ptr %46, align 8
  invoke void @_ZN3fmt3v1112system_errorIJPKcEEESt12system_erroriNS0_7fstringIJDpT_EE1tEDpOS6_(ptr dead_on_unwind writable sret(%"class.std::system_error") align 8 %37, i32 noundef %39, ptr %45, i64 %47, ptr noundef nonnull align 8 dereferenceable(8) %12)
          to label %48 unwind label %53

48:                                               ; preds = %43
  store i1 false, ptr %13, align 1
  invoke void @__cxa_throw(ptr %37, ptr @_ZTISt12system_error, ptr @_ZNSt12system_errorD1Ev) #29
          to label %67 unwind label %53

49:                                               ; preds = %40, %36
  %50 = landingpad { ptr, i32 }
          cleanup
  %51 = extractvalue { ptr, i32 } %50, 0
  store ptr %51, ptr %10, align 8
  %52 = extractvalue { ptr, i32 } %50, 1
  store i32 %52, ptr %11, align 4
  br label %57

53:                                               ; preds = %48, %43, %41
  %54 = landingpad { ptr, i32 }
          cleanup
  %55 = extractvalue { ptr, i32 } %54, 0
  store ptr %55, ptr %10, align 8
  %56 = extractvalue { ptr, i32 } %54, 1
  store i32 %56, ptr %11, align 4
  call void @llvm.lifetime.end.p0(i64 8, ptr %12) #27
  br label %57

57:                                               ; preds = %53, %49
  call void @llvm.lifetime.end.p0(i64 1, ptr %9) #27
  call void @llvm.lifetime.end.p0(i64 1, ptr %8) #27
  %58 = load i1, ptr %13, align 1
  br i1 %58, label %59, label %60

59:                                               ; preds = %57
  call void @__cxa_free_exception(ptr %37) #27
  br label %60

60:                                               ; preds = %59, %57
  br label %62

61:                                               ; preds = %32
  ret void

62:                                               ; preds = %60
  %63 = load ptr, ptr %10, align 8
  %64 = load i32, ptr %11, align 4
  %65 = insertvalue { ptr, i32 } poison, ptr %63, 0
  %66 = insertvalue { ptr, i32 } %65, i32 %64, 1
  resume { ptr, i32 } %66

67:                                               ; preds = %48
  unreachable
}